target datalayout = "e-m:e-p270:32:32-p271:32:32-p272:64:64-i64:64-i128:128-f80:128-n8:16:32:64-S128"
target triple = "x86_64-pc-linux-gnu"

%struct.JNINativeInterface_ = type { ptr, ptr, ptr, ptr, ptr, ptr, ptr, ptr, ptr, ptr, ptr, ptr, ptr, ptr, ptr, ptr, ptr, ptr, ptr, ptr, ptr, ptr, ptr, ptr, ptr, ptr, ptr, ptr, ptr, ptr, ptr, ptr, ptr, ptr, ptr, ptr, ptr, ptr, ptr, ptr, ptr, ptr, ptr, ptr, ptr, ptr, ptr, ptr, ptr, ptr, ptr, ptr, ptr, ptr, ptr, ptr, ptr, ptr, ptr, ptr, ptr, ptr, ptr, ptr, ptr, ptr, ptr, ptr, ptr, ptr, ptr, ptr, ptr, ptr, ptr, ptr, ptr, ptr, ptr, ptr, ptr, ptr, ptr, ptr, ptr, ptr, ptr, ptr, ptr, ptr, ptr, ptr, ptr, ptr, ptr, ptr, ptr, ptr, ptr, ptr, ptr, ptr, ptr, ptr, ptr, ptr, ptr, ptr, ptr, ptr, ptr, ptr, ptr, ptr, ptr, ptr, ptr, ptr, ptr, ptr, ptr, ptr, ptr, ptr, ptr, ptr, ptr, ptr, ptr, ptr, ptr, ptr, ptr, ptr, ptr, ptr, ptr, ptr, ptr, ptr, ptr, ptr, ptr, ptr, ptr, ptr, ptr, ptr, ptr, ptr, ptr, ptr, ptr, ptr, ptr, ptr, ptr, ptr, ptr, ptr, ptr, ptr, ptr, ptr, ptr, ptr, ptr, ptr, ptr, ptr, ptr, ptr, ptr, ptr, ptr, ptr, ptr, ptr, ptr, ptr, ptr, ptr, ptr, ptr, ptr, ptr, ptr, ptr, ptr, ptr, ptr, ptr, ptr, ptr, ptr, ptr, ptr, ptr, ptr, ptr, ptr, ptr, ptr, ptr, ptr, ptr, ptr, ptr, ptr, ptr, ptr, ptr, ptr, ptr, ptr, ptr, ptr, ptr, ptr, ptr, ptr, ptr, ptr, ptr, ptr, ptr, ptr, ptr, ptr, ptr, ptr, ptr, ptr, ptr, ptr }

@JGSS_DEBUG = external global i32, align 4
@stderr = external global ptr, align 8
@.str = private unnamed_addr constant [20 x i8] c"[GSSLibStub:%d] %s\0A\00", align 1
@.str.1 = private unnamed_addr constant [39 x i8] c"[GSSLibStub_init] GSS lib name is NULL\00", align 1
@.str.2 = private unnamed_addr constant [46 x i8] c"[GSSLibStub:%d] [GSSLibStub_init] libName=%s\0A\00", align 1
@tlsCBCl = internal global ptr null, align 8
@.str.3 = private unnamed_addr constant [54 x i8] c"sun/security/jgss/krb5/internal/TlsChannelBindingImpl\00", align 1

; Function Attrs: nounwind uwtable
define zeroext i8 @Java_sun_security_jgss_wrapper_GSSLibStub_init(ptr noundef %0, ptr noundef %1, ptr noundef %2, i8 noundef zeroext %3) #0 {
  %5 = alloca i8, align 1
  %6 = alloca ptr, align 8
  %7 = alloca ptr, align 8
  %8 = alloca ptr, align 8
  %9 = alloca i8, align 1
  %10 = alloca ptr, align 8
  %11 = alloca i32, align 4
  %12 = alloca ptr, align 8
  %13 = alloca ptr, align 8
  store ptr %0, ptr %6, align 8
  store ptr %1, ptr %7, align 8
  store ptr %2, ptr %8, align 8
  store i8 %3, ptr %9, align 1
  %14 = load i8, ptr %9, align 1
  %15 = icmp ne i8 %14, 0
  br i1 %15, label %17, label %16

16:                                               ; preds = %4
  store i32 0, ptr @JGSS_DEBUG, align 4
  br label %18

17:                                               ; preds = %4
  store i32 1, ptr @JGSS_DEBUG, align 4
  br label %18

18:                                               ; preds = %17, %16
  %19 = load ptr, ptr %8, align 8
  %20 = icmp eq ptr %19, null
  br i1 %20, label %21, label %30

21:                                               ; preds = %18
  %22 = load i32, ptr @JGSS_DEBUG, align 4
  %23 = icmp ne i32 %22, 0
  br i1 %23, label %24, label %29

24:                                               ; preds = %21
  %25 = load ptr, ptr @stderr, align 8
  %26 = call i32 (ptr, ptr, ...) @fprintf(ptr noundef %25, ptr noundef @.str, i32 noundef 59, ptr noundef @.str.1) #5
  %27 = load ptr, ptr @stderr, align 8
  %28 = call i32 @fflush(ptr noundef %27)
  br label %29

29:                                               ; preds = %24, %21
  store i8 0, ptr %5, align 1
  br label %103

30:                                               ; preds = %18
  %31 = load ptr, ptr %6, align 8
  %32 = load ptr, ptr %31, align 8
  %33 = getelementptr inbounds %struct.JNINativeInterface_, ptr %32, i32 0, i32 169
  %34 = load ptr, ptr %33, align 8
  %35 = load ptr, ptr %6, align 8
  %36 = load ptr, ptr %8, align 8
  %37 = call ptr %34(ptr noundef %35, ptr noundef %36, ptr noundef null)
  store ptr %37, ptr %10, align 8
  %38 = load ptr, ptr %10, align 8
  %39 = icmp eq ptr %38, null
  br i1 %39, label %40, label %41

40:                                               ; preds = %30
  store i8 0, ptr %5, align 1
  br label %103

41:                                               ; preds = %30
  %42 = load i32, ptr @JGSS_DEBUG, align 4
  %43 = icmp ne i32 %42, 0
  br i1 %43, label %44, label %50

44:                                               ; preds = %41
  %45 = load ptr, ptr @stderr, align 8
  %46 = load ptr, ptr %10, align 8
  %47 = call i32 (ptr, ptr, ...) @fprintf(ptr noundef %45, ptr noundef @.str.2, i32 noundef 67, ptr noundef %46) #5
  %48 = load ptr, ptr @stderr, align 8
  %49 = call i32 @fflush(ptr noundef %48)
  br label %50

50:                                               ; preds = %44, %41
  %51 = load ptr, ptr %10, align 8
  %52 = call i32 @loadNative(ptr noundef %51)
  store i32 %52, ptr %11, align 4
  %53 = load ptr, ptr %6, align 8
  %54 = load ptr, ptr %53, align 8
  %55 = getelementptr inbounds %struct.JNINativeInterface_, ptr %54, i32 0, i32 170
  %56 = load ptr, ptr %55, align 8
  %57 = load ptr, ptr %6, align 8
  %58 = load ptr, ptr %8, align 8
  %59 = load ptr, ptr %10, align 8
  call void %56(ptr noundef %57, ptr noundef %58, ptr noundef %59)
  %60 = load ptr, ptr @tlsCBCl, align 8
  %61 = icmp eq ptr %60, null
  br i1 %61, label %62, label %80

62:                                               ; preds = %50
  %63 = load ptr, ptr %6, align 8
  %64 = load ptr, ptr %63, align 8
  %65 = getelementptr inbounds %struct.JNINativeInterface_, ptr %64, i32 0, i32 6
  %66 = load ptr, ptr %65, align 8
  %67 = load ptr, ptr %6, align 8
  %68 = call ptr %66(ptr noundef %67, ptr noundef @.str.3)
  store ptr %68, ptr %12, align 8
  %69 = load ptr, ptr %12, align 8
  %70 = icmp eq ptr %69, null
  br i1 %70, label %71, label %72

71:                                               ; preds = %62
  store i8 0, ptr %5, align 1
  br label %103

72:                                               ; preds = %62
  %73 = load ptr, ptr %6, align 8
  %74 = load ptr, ptr %73, align 8
  %75 = getelementptr inbounds %struct.JNINativeInterface_, ptr %74, i32 0, i32 21
  %76 = load ptr, ptr %75, align 8
  %77 = load ptr, ptr %6, align 8
  %78 = load ptr, ptr %12, align 8
  %79 = call ptr %76(ptr noundef %77, ptr noundef %78)
  store ptr %79, ptr @tlsCBCl, align 8
  br label %80

80:                                               ; preds = %72, %50
  %81 = load i32, ptr %11, align 4
  %82 = icmp ne i32 %81, 0
  br i1 %82, label %84, label %83

83:                                               ; preds = %80
  store i8 1, ptr %5, align 1
  br label %103

84:                                               ; preds = %80
  %85 = load i32, ptr @JGSS_DEBUG, align 4
  %86 = icmp ne i32 %85, 0
  br i1 %86, label %87, label %102

87:                                               ; preds = %84
  %88 = call ptr @dlerror() #5
  store ptr %88, ptr %13, align 8
  %89 = load ptr, ptr %13, align 8
  %90 = icmp ne ptr %89, null
  br i1 %90, label %91, label %101

91:                                               ; preds = %87
  %92 = load i32, ptr @JGSS_DEBUG, align 4
  %93 = icmp ne i32 %92, 0
  br i1 %93, label %94, label %100

94:                                               ; preds = %91
  %95 = load ptr, ptr @stderr, align 8
  %96 = load ptr, ptr %13, align 8
  %97 = call i32 (ptr, ptr, ...) @fprintf(ptr noundef %95, ptr noundef @.str, i32 noundef 109, ptr noundef %96) #5
  %98 = load ptr, ptr @stderr, align 8
  %99 = call i32 @fflush(ptr noundef %98)
  br label %100

100:                                              ; preds = %94, %91
  br label %101

101:                                              ; preds = %100, %87
  br label %102

102:                                              ; preds = %101, %84
  store i8 0, ptr %5, align 1
  br label %103

103:                                              ; preds = %102, %83, %71, %40, %29
  %104 = load i8, ptr %5, align 1
  ret i8 %104
}