; Function Attrs: nounwind uwtable
define zeroext range(i8 0, 2) i8 @Java_sun_security_jgss_wrapper_GSSLibStub_init(ptr noundef %0, ptr nocapture noundef readnone %1, ptr noundef %2, i8 noundef zeroext %3) local_unnamed_addr #0 {
  %.not = icmp ne i8 %3, 0
  %. = zext i1 %.not to i32
  store i32 %., ptr @JGSS_DEBUG, align 4
  %5 = icmp eq ptr %2, null
  br i1 %5, label %6, label %10

6:                                                ; preds = %4
  br i1 %.not, label %7, label %54

7:                                                ; preds = %6
  %8 = load ptr, ptr @stderr, align 8
  %9 = tail call i32 (ptr, ptr, ...) @fprintf(ptr noundef %8, ptr noundef nonnull @.str, i32 noundef 59, ptr noundef nonnull @.str.1) #8
  br label %.sink.split

10:                                               ; preds = %4
  %11 = load ptr, ptr %0, align 8
  %12 = getelementptr inbounds i8, ptr %11, i64 1352
  %13 = load ptr, ptr %12, align 8
  %14 = tail call ptr %13(ptr noundef nonnull %0, ptr noundef nonnull %2, ptr noundef null) #9
  %15 = icmp eq ptr %14, null
  br i1 %15, label %54, label %16

16:                                               ; preds = %10
  %17 = load i32, ptr @JGSS_DEBUG, align 4
  %.not26 = icmp eq i32 %17, 0
  br i1 %.not26, label %23, label %18

18:                                               ; preds = %16
  %19 = load ptr, ptr @stderr, align 8
  %20 = tail call i32 (ptr, ptr, ...) @fprintf(ptr noundef %19, ptr noundef nonnull @.str.2, i32 noundef 67, ptr noundef nonnull %14) #8
  %21 = load ptr, ptr @stderr, align 8
  %22 = tail call i32 @fflush(ptr noundef %21)
  br label %23

23:                                               ; preds = %18, %16
  %24 = tail call i32 @loadNative(ptr noundef nonnull %14) #9
  %25 = load ptr, ptr %0, align 8
  %26 = getelementptr inbounds i8, ptr %25, i64 1360
  %27 = load ptr, ptr %26, align 8
  tail call void %27(ptr noundef nonnull %0, ptr noundef nonnull %2, ptr noundef nonnull %14) #9
  %28 = load ptr, ptr @tlsCBCl, align 8
  %29 = icmp eq ptr %28, null
  br i1 %29, label %30, label %41

30:                                               ; preds = %23
  %31 = load ptr, ptr %0, align 8
  %32 = getelementptr inbounds i8, ptr %31, i64 48
  %33 = load ptr, ptr %32, align 8
  %34 = tail call ptr %33(ptr noundef nonnull %0, ptr noundef nonnull @.str.3) #9
  %35 = icmp eq ptr %34, null
  br i1 %35, label %54, label %36

36:                                               ; preds = %30
  %37 = load ptr, ptr %0, align 8
  %38 = getelementptr inbounds i8, ptr %37, i64 168
  %39 = load ptr, ptr %38, align 8
  %40 = tail call ptr %39(ptr noundef nonnull %0, ptr noundef nonnull %34) #9
  store ptr %40, ptr @tlsCBCl, align 8
  br label %41

41:                                               ; preds = %36, %23
  %.not27 = icmp eq i32 %24, 0
  br i1 %.not27, label %54, label %42

42:                                               ; preds = %41
  %43 = load i32, ptr @JGSS_DEBUG, align 4
  %.not28 = icmp eq i32 %43, 0
  br i1 %.not28, label %54, label %44

44:                                               ; preds = %42
  %45 = tail call ptr @dlerror() #9
  %46 = icmp ne ptr %45, null
  %47 = load i32, ptr @JGSS_DEBUG, align 4
  %48 = icmp ne i32 %47, 0
  %or.cond = select i1 %46, i1 %48, i1 false
  br i1 %or.cond, label %49, label %54

49:                                               ; preds = %44
  %50 = load ptr, ptr @stderr, align 8
  %51 = tail call i32 (ptr, ptr, ...) @fprintf(ptr noundef %50, ptr noundef nonnull @.str, i32 noundef 109, ptr noundef nonnull %45) #8
  br label %.sink.split

.sink.split:                                      ; preds = %7, %49
  %52 = load ptr, ptr @stderr, align 8
  %53 = tail call i32 @fflush(ptr noundef %52)
  br label %54

54:                                               ; preds = %.sink.split, %42, %44, %41, %30, %10, %6
  %.0 = phi i8 [ 0, %6 ], [ 0, %10 ], [ 0, %30 ], [ 1, %41 ], [ 0, %44 ], [ 0, %42 ], [ 0, %.sink.split ]
  ret i8 %.0
}